; Function Attrs: nounwind uwtable
define ptr @lv_circle_buf_head(ptr noundef %0) local_unnamed_addr #0 {
  %.not = icmp eq ptr %0, null
  br i1 %.not, label %.preheader, label %lv_circle_buf_capacity.exit

.preheader:                                       ; preds = %1, %.preheader
  br label %.preheader

lv_circle_buf_capacity.exit:                      ; preds = %1
  %2 = getelementptr inbounds nuw i8, ptr %0, i64 24
  %3 = load i32, ptr %2, align 8, !tbaa !3
  %4 = tail call i32 @lv_array_capacity(ptr noundef nonnull %0) #6
  %5 = urem i32 %3, %4
  %6 = tail call ptr @lv_array_at(ptr noundef nonnull %0, i32 noundef %5) #6
  ret ptr %6
}